; Function Attrs: nounwind uwtable
define dso_local void @ACLFreeUser(ptr noundef %0) local_unnamed_addr #0 {
  %2 = load ptr, ptr %0, align 8, !tbaa !88
  tail call void @sdsfree(ptr noundef %2) #25
  %3 = getelementptr inbounds nuw i8, ptr %0, i64 32
  %4 = load ptr, ptr %3, align 8, !tbaa !91
  %.not = icmp eq ptr %4, null
  br i1 %.not, label %6, label %5

5:                                                ; preds = %1
  tail call void @decrRefCount(ptr noundef nonnull %4) #25
  store ptr null, ptr %3, align 8, !tbaa !91
  br label %6

6:                                                ; preds = %5, %1
  %7 = getelementptr inbounds nuw i8, ptr %0, i64 16
  %8 = load ptr, ptr %7, align 8, !tbaa !90
  tail call void @listRelease(ptr noundef %8) #25
  %9 = getelementptr inbounds nuw i8, ptr %0, i64 24
  %10 = load ptr, ptr %9, align 8, !tbaa !79
  tail call void @listRelease(ptr noundef %10) #25
  tail call void @zfree(ptr noundef nonnull %0) #25
  ret void
}